target datalayout = "e-m:e-p270:32:32-p271:32:32-p272:64:64-i64:64-i128:128-f80:128-n8:16:32:64-S128"
target triple = "x86_64-pc-linux-gnu"

%struct.anon = type { i8 }
%union.anon = type { %struct.anon.2 }
%struct.anon.2 = type { i8, i8, ptr, ptr }
%struct.PlatformTarget = type { ptr, i32, ptr, ptr, i32, i32, i32, i32, i32, i32, i32, [7 x %struct.AlignData], [7 x %struct.AlignData], [7 x %struct.AlignData], i32, i16, %union.anon.88, i8, i8, i8, i8, i8, i8, i8, i8, i8, i8, %struct.AlignData, i32, i32, i32, i32, i32, i32, i32, i32, i32, i32, i32, i32, i32, i32, i32, i32, ptr }
%union.anon.88 = type { %struct.anon.90 }
%struct.anon.90 = type { %struct.X86Features, i32, i32 }
%struct.X86Features = type { [2 x i64], ptr }
%struct.AlignData = type { i32, i32 }
%struct.Type_ = type { i32, ptr, ptr, ptr, %union.anon.85, ptr, ptr, %union.anon.87 }
%union.anon.85 = type { ptr }
%union.anon.87 = type { %struct.TypeFunction }
%struct.TypeFunction = type { ptr, ptr, ptr }
%struct.ABIArgInfo_ = type { i32, i8, %struct.anon, %union.anon }
%struct.anon.3 = type { i32, ptr }

@platform_target = external global %struct.PlatformTarget, align 8

; Function Attrs: nounwind uwtable
define dso_local ptr @abi_arg_new_direct_by_reg(i1 noundef zeroext %0) #0 {
  %2 = alloca i8, align 1
  %3 = alloca ptr, align 8
  %4 = zext i1 %0 to i8
  store i8 %4, ptr %2, align 1
  %5 = call ptr @abi_arg_new(i32 noundef 1)
  store ptr %5, ptr %3, align 8
  %6 = load i8, ptr %2, align 1
  %7 = trunc i8 %6 to i1
  %8 = load ptr, ptr %3, align 8
  %9 = getelementptr inbounds %struct.ABIArgInfo_, ptr %8, i32 0, i32 2
  %10 = zext i1 %7 to i8
  %11 = load i8, ptr %9, align 1
  %12 = and i8 %11, -2
  %13 = or i8 %12, %10
  store i8 %13, ptr %9, align 1
  %14 = load ptr, ptr %3, align 8
  ret ptr %14
}

; Function Attrs: nounwind uwtable
define dso_local ptr @abi_arg_new_direct_int_ext_by_reg(ptr noundef %0, i1 noundef zeroext %1) #0 {
  %3 = alloca i1, align 1
  %4 = alloca ptr, align 8
  %5 = alloca i32, align 4
  %6 = alloca ptr, align 8
  %7 = alloca i8, align 1
  %8 = alloca ptr, align 8
  store ptr %0, ptr %6, align 8
  %9 = zext i1 %1 to i8
  store i8 %9, ptr %7, align 1
  %10 = call ptr @abi_arg_new(i32 noundef 1)
  store ptr %10, ptr %8, align 8
  %11 = load ptr, ptr %6, align 8
  store ptr %11, ptr %4, align 8
  %12 = load ptr, ptr %4, align 8
  %13 = load i32, ptr %12, align 8
  store i32 %13, ptr %5, align 4
  %14 = load i32, ptr %5, align 4
  %15 = icmp uge i32 %14, 3
  br i1 %15, label %16, label %20

16:                                               ; preds = %2
  %17 = load i32, ptr %5, align 4
  %18 = icmp ult i32 %17, 8
  br i1 %18, label %19, label %20

19:                                               ; preds = %16
  store i1 true, ptr %3, align 1
  br label %36

20:                                               ; preds = %16, %2
  %21 = load i32, ptr %5, align 4
  %22 = icmp ne i32 %21, 37
  br i1 %22, label %23, label %24

23:                                               ; preds = %20
  store i1 false, ptr %3, align 1
  br label %36

24:                                               ; preds = %20
  %25 = load ptr, ptr %4, align 8
  %26 = getelementptr inbounds %struct.Type_, ptr %25, i32 0, i32 7
  %27 = load ptr, ptr %26, align 8
  %28 = load i32, ptr %27, align 8
  store i32 %28, ptr %5, align 4
  %29 = load i32, ptr %5, align 4
  %30 = icmp uge i32 %29, 3
  br i1 %30, label %31, label %34

31:                                               ; preds = %24
  %32 = load i32, ptr %5, align 4
  %33 = icmp ult i32 %32, 8
  br label %34

34:                                               ; preds = %31, %24
  %35 = phi i1 [ false, %24 ], [ %33, %31 ]
  store i1 %35, ptr %3, align 1
  br label %36

36:                                               ; preds = %34, %23, %19
  %37 = load i1, ptr %3, align 1
  br i1 %37, label %38, label %44

38:                                               ; preds = %36
  %39 = load ptr, ptr %8, align 8
  %40 = getelementptr inbounds %struct.ABIArgInfo_, ptr %39, i32 0, i32 2
  %41 = load i8, ptr %40, align 1
  %42 = and i8 %41, -5
  %43 = or i8 %42, 4
  store i8 %43, ptr %40, align 1
  br label %50

44:                                               ; preds = %36
  %45 = load ptr, ptr %8, align 8
  %46 = getelementptr inbounds %struct.ABIArgInfo_, ptr %45, i32 0, i32 2
  %47 = load i8, ptr %46, align 1
  %48 = and i8 %47, -3
  %49 = or i8 %48, 2
  store i8 %49, ptr %46, align 1
  br label %50

50:                                               ; preds = %44, %38
  %51 = load i8, ptr %7, align 1
  %52 = trunc i8 %51 to i1
  %53 = load ptr, ptr %8, align 8
  %54 = getelementptr inbounds %struct.ABIArgInfo_, ptr %53, i32 0, i32 2
  %55 = zext i1 %52 to i8
  %56 = load i8, ptr %54, align 1
  %57 = and i8 %56, -2
  %58 = or i8 %57, %55
  store i8 %58, ptr %54, align 1
  %59 = load ptr, ptr %8, align 8
  ret ptr %59
}

; Function Attrs: nounwind uwtable
define internal ptr @abi_arg_new(i32 noundef %0) #0 {
  %2 = alloca i32, align 4
  %3 = alloca ptr, align 8
  store i32 %0, ptr %2, align 4
  %4 = call ptr @calloc_arena(i64 noundef 32)
  store ptr %4, ptr %3, align 8
  %5 = load i32, ptr %2, align 4
  %6 = load ptr, ptr %3, align 8
  %7 = getelementptr inbounds %struct.ABIArgInfo_, ptr %6, i32 0, i32 1
  %8 = trunc i32 %5 to i8
  %9 = load i8, ptr %7, align 4
  %10 = and i8 %8, 63
  %11 = and i8 %9, -64
  %12 = or i8 %11, %10
  store i8 %12, ptr %7, align 4
  %13 = load ptr, ptr %3, align 8
  ret ptr %13
}

; Function Attrs: nounwind uwtable
define dso_local ptr @abi_arg_new_direct() #0 {
  %1 = call ptr @abi_arg_new_direct_by_reg(i1 noundef zeroext false)
  ret ptr %1
}

; Function Attrs: nounwind uwtable
define dso_local ptr @abi_arg_new_direct_int_ext(ptr noundef %0) #0 {
  %2 = alloca ptr, align 8
  store ptr %0, ptr %2, align 8
  %3 = load ptr, ptr %2, align 8
  %4 = call ptr @abi_arg_new_direct_int_ext_by_reg(ptr noundef %3, i1 noundef zeroext false)
  ret ptr %4
}

; Function Attrs: nounwind uwtable
define dso_local ptr @abi_arg_new_indirect_by_val(ptr noundef %0) #0 {
  %2 = alloca ptr, align 8
  %3 = alloca ptr, align 8
  store ptr %0, ptr %2, align 8
  %4 = call ptr @abi_arg_new(i32 noundef 7)
  store ptr %4, ptr %3, align 8
  %5 = load ptr, ptr %2, align 8
  %6 = call i32 @type_abi_alignment(ptr noundef %5)
  %7 = load ptr, ptr %3, align 8
  %8 = getelementptr inbounds %struct.ABIArgInfo_, ptr %7, i32 0, i32 3
  %9 = getelementptr inbounds %struct.anon.3, ptr %8, i32 0, i32 0
  store i32 %6, ptr %9, align 8
  %10 = load ptr, ptr %2, align 8
  %11 = load ptr, ptr %3, align 8
  %12 = getelementptr inbounds %struct.ABIArgInfo_, ptr %11, i32 0, i32 3
  %13 = getelementptr inbounds %struct.anon.3, ptr %12, i32 0, i32 1
  store ptr %10, ptr %13, align 8
  %14 = load ptr, ptr %3, align 8
  %15 = getelementptr inbounds %struct.ABIArgInfo_, ptr %14, i32 0, i32 2
  %16 = load i8, ptr %15, align 1
  %17 = and i8 %16, -17
  %18 = or i8 %17, 16
  store i8 %18, ptr %15, align 1
  %19 = load ptr, ptr %3, align 8
  ret ptr %19
}

; Function Attrs: nounwind uwtable
define dso_local ptr @c_abi_classify_argument_type_default(ptr noundef %0) #0 {
  %2 = alloca ptr, align 8
  %3 = alloca i32, align 4
  %4 = alloca ptr, align 8
  %5 = alloca ptr, align 8
  %6 = alloca ptr, align 8
  store ptr %0, ptr %6, align 8
  %7 = load ptr, ptr %6, align 8
  %8 = call ptr @type_lowering(ptr noundef %7)
  store ptr %8, ptr %6, align 8
  %9 = load ptr, ptr %6, align 8
  %10 = call zeroext i1 @type_is_abi_aggregate(ptr noundef %9)
  br i1 %10, label %11, label %14

11:                                               ; preds = %1
  %12 = load ptr, ptr %6, align 8
  %13 = call ptr @abi_arg_new_indirect_by_val(ptr noundef %12)
  store ptr %13, ptr %5, align 8
  br label %57

14:                                               ; preds = %1
  %15 = load ptr, ptr %6, align 8
  %16 = call zeroext i1 @type_is_int128(ptr noundef %15)
  br i1 %16, label %17, label %23

17:                                               ; preds = %14
  %18 = load i8, ptr getelementptr inbounds (%struct.PlatformTarget, ptr @platform_target, i32 0, i32 26), align 1
  %19 = trunc i8 %18 to i1
  br i1 %19, label %23, label %20

20:                                               ; preds = %17
  %21 = load ptr, ptr %6, align 8
  %22 = call ptr @abi_arg_new_indirect_by_val(ptr noundef %21)
  store ptr %22, ptr %5, align 8
  br label %57

23:                                               ; preds = %17, %14
  %24 = load ptr, ptr %6, align 8
  store ptr %24, ptr %4, align 8
  %25 = load ptr, ptr %4, align 8
  store ptr %25, ptr %2, align 8
  %26 = load ptr, ptr %2, align 8
  %27 = load i32, ptr %26, align 8
  store i32 %27, ptr %3, align 4
  %28 = load i32, ptr %3, align 4
  %29 = icmp eq i32 %28, 31
  br i1 %29, label %30, label %35

30:                                               ; preds = %23
  %31 = load ptr, ptr %2, align 8
  %32 = getelementptr inbounds %struct.Type_, ptr %31, i32 0, i32 1
  %33 = load ptr, ptr %32, align 8
  %34 = load i32, ptr %33, align 8
  store i32 %34, ptr %3, align 4
  br label %35

35:                                               ; preds = %30, %23
  %36 = load i32, ptr %3, align 4
  %37 = icmp uge i32 %36, 2
  br i1 %37, label %38, label %41

38:                                               ; preds = %35
  %39 = load i32, ptr %3, align 4
  %40 = icmp ule i32 %39, 12
  br label %41

41:                                               ; preds = %38, %35
  %42 = phi i1 [ false, %35 ], [ %40, %38 ]
  br i1 %42, label %43, label %50

43:                                               ; preds = %41
  %44 = load ptr, ptr %4, align 8
  %45 = getelementptr inbounds %struct.Type_, ptr %44, i32 0, i32 7
  %46 = load i32, ptr %45, align 8
  %47 = and i32 %46, 255
  %48 = load i32, ptr getelementptr inbounds (%struct.PlatformTarget, ptr @platform_target, i32 0, i32 33), align 8
  %49 = icmp ult i32 %47, %48
  br label %50

50:                                               ; preds = %43, %41
  %51 = phi i1 [ false, %41 ], [ %49, %43 ]
  br i1 %51, label %52, label %55

52:                                               ; preds = %50
  %53 = load ptr, ptr %6, align 8
  %54 = call ptr @abi_arg_new_direct_int_ext(ptr noundef %53)
  store ptr %54, ptr %5, align 8
  br label %57

55:                                               ; preds = %50
  %56 = call ptr @abi_arg_new_direct()
  store ptr %56, ptr %5, align 8
  br label %57

57:                                               ; preds = %55, %52, %20, %11
  %58 = load ptr, ptr %5, align 8
  ret ptr %58
}