; Function Attrs: nounwind uwtable
define dso_local ptr @c_abi_classify_argument_type_default(ptr nocapture noundef readonly %0) local_unnamed_addr #2 {
  %2 = tail call fastcc ptr @type_lowering(ptr noundef %0)
  %3 = tail call zeroext i1 @type_is_abi_aggregate(ptr noundef %2) #5
  br i1 %3, label %4, label %16

4:                                                ; preds = %1
  %5 = tail call ptr @calloc_arena(i64 noundef 32) #5
  %6 = getelementptr inbounds i8, ptr %5, i64 4
  %7 = load i8, ptr %6, align 4
  %8 = and i8 %7, -64
  %9 = or disjoint i8 %8, 7
  store i8 %9, ptr %6, align 4
  %10 = tail call i32 @type_abi_alignment(ptr noundef %2) #5
  %11 = getelementptr inbounds i8, ptr %5, i64 8
  store i32 %10, ptr %11, align 8
  %12 = getelementptr inbounds i8, ptr %5, i64 16
  store ptr %2, ptr %12, align 8
  %13 = getelementptr inbounds i8, ptr %5, i64 5
  %14 = load i8, ptr %13, align 1
  %15 = or i8 %14, 16
  store i8 %15, ptr %13, align 1
  br label %74

16:                                               ; preds = %1
  %17 = tail call zeroext i1 @type_is_int128(ptr noundef %2) #5
  br i1 %17, label %18, label %33

18:                                               ; preds = %16
  %19 = load i8, ptr getelementptr inbounds (%struct.PlatformTarget, ptr @platform_target, i64 0, i32 26), align 1
  %20 = trunc i8 %19 to i1
  br i1 %20, label %33, label %21

21:                                               ; preds = %18
  %22 = tail call ptr @calloc_arena(i64 noundef 32) #5
  %23 = getelementptr inbounds i8, ptr %22, i64 4
  %24 = load i8, ptr %23, align 4
  %25 = and i8 %24, -64
  %26 = or disjoint i8 %25, 7
  store i8 %26, ptr %23, align 4
  %27 = tail call i32 @type_abi_alignment(ptr noundef %2) #5
  %28 = getelementptr inbounds i8, ptr %22, i64 8
  store i32 %27, ptr %28, align 8
  %29 = getelementptr inbounds i8, ptr %22, i64 16
  store ptr %2, ptr %29, align 8
  %30 = getelementptr inbounds i8, ptr %22, i64 5
  %31 = load i8, ptr %30, align 1
  %32 = or i8 %31, 16
  store i8 %32, ptr %30, align 1
  br label %74

33:                                               ; preds = %18, %16
  %34 = load i32, ptr %2, align 8
  %35 = icmp eq i32 %34, 31
  br i1 %35, label %36, label %40

36:                                               ; preds = %33
  %37 = getelementptr inbounds i8, ptr %2, i64 8
  %38 = load ptr, ptr %37, align 8
  %39 = load i32, ptr %38, align 8
  br label %40

40:                                               ; preds = %36, %33
  %.014 = phi i32 [ %39, %36 ], [ %34, %33 ]
  %41 = add i32 %.014, -2
  %42 = icmp ult i32 %41, 11
  br i1 %42, label %43, label %.critedge

43:                                               ; preds = %40
  %44 = getelementptr inbounds i8, ptr %2, i64 56
  %45 = load i32, ptr %44, align 8
  %46 = and i32 %45, 255
  %47 = load i32, ptr getelementptr inbounds (%struct.PlatformTarget, ptr @platform_target, i64 0, i32 33), align 8
  %48 = icmp ult i32 %46, %47
  br i1 %48, label %49, label %.critedge

49:                                               ; preds = %43
  %50 = tail call ptr @calloc_arena(i64 noundef 32) #5
  %51 = getelementptr inbounds i8, ptr %50, i64 4
  %52 = load i8, ptr %51, align 4
  %53 = and i8 %52, -64
  %54 = or disjoint i8 %53, 1
  store i8 %54, ptr %51, align 4
  %55 = load i32, ptr %2, align 8
  %56 = add i32 %55, -3
  %or.cond.i.i = icmp ult i32 %56, 5
  br i1 %or.cond.i.i, label %abi_arg_new_direct_int_ext.exit, label %57

57:                                               ; preds = %49
  %.not.i.i = icmp eq i32 %55, 37
  br i1 %.not.i.i, label %58, label %.critedge15.i.i

58:                                               ; preds = %57
  %59 = load ptr, ptr %44, align 8
  %60 = load i32, ptr %59, align 8
  %61 = add i32 %60, -3
  %62 = icmp ult i32 %61, 5
  br i1 %62, label %abi_arg_new_direct_int_ext.exit, label %.critedge15.i.i

.critedge15.i.i:                                  ; preds = %58, %57
  br label %abi_arg_new_direct_int_ext.exit

abi_arg_new_direct_int_ext.exit:                  ; preds = %49, %58, %.critedge15.i.i
  %.sink16.i.i = phi i8 [ 2, %.critedge15.i.i ], [ 4, %49 ], [ 4, %58 ]
  %63 = getelementptr inbounds i8, ptr %50, i64 5
  %64 = load i8, ptr %63, align 1
  %.masked.i.i = and i8 %64, -2
  %65 = or i8 %.masked.i.i, %.sink16.i.i
  store i8 %65, ptr %63, align 1
  br label %74

.critedge:                                        ; preds = %40, %43
  %66 = tail call ptr @calloc_arena(i64 noundef 32) #5
  %67 = getelementptr inbounds i8, ptr %66, i64 4
  %68 = load i8, ptr %67, align 4
  %69 = and i8 %68, -64
  %70 = or disjoint i8 %69, 1
  store i8 %70, ptr %67, align 4
  %71 = getelementptr inbounds i8, ptr %66, i64 5
  %72 = load i8, ptr %71, align 1
  %73 = and i8 %72, -2
  store i8 %73, ptr %71, align 1
  br label %74

74:                                               ; preds = %.critedge, %abi_arg_new_direct_int_ext.exit, %21, %4
  %.0 = phi ptr [ %5, %4 ], [ %50, %abi_arg_new_direct_int_ext.exit ], [ %66, %.critedge ], [ %22, %21 ]
  ret ptr %.0
}